; ModuleID = 'source-C-CXX/55/2560.cpp'
source_filename = "source-C-CXX/55/2560.cpp"
target datalayout = "e-m:e-p270:32:32-p271:32:32-p272:64:64-i64:64-f80:128-n8:16:32:64-S128"
target triple = "x86_64-pc-linux-gnu"

%"class.std::ios_base::Init" = type { i8 }
%"class.std::basic_istream" = type { i32 (...)**, i64, %"class.std::basic_ios" }
%"class.std::basic_ios" = type { %"class.std::ios_base", %"class.std::basic_ostream"*, i8, i8, %"class.std::basic_streambuf"*, %"class.std::ctype"*, %"class.std::num_put"*, %"class.std::num_get"* }
%"class.std::ios_base" = type { i32 (...)**, i64, i64, i32, i32, i32, %"struct.std::ios_base::_Callback_list"*, %"struct.std::ios_base::_Words", [8 x %"struct.std::ios_base::_Words"], i32, %"struct.std::ios_base::_Words"*, %"class.std::locale" }
%"struct.std::ios_base::_Callback_list" = type { %"struct.std::ios_base::_Callback_list"*, void (i32, %"class.std::ios_base"*, i32)*, i32, i32 }
%"struct.std::ios_base::_Words" = type { i8*, i64 }
%"class.std::locale" = type { %"class.std::locale::_Impl"* }
%"class.std::locale::_Impl" = type { i32, %"class.std::locale::facet"**, i64, %"class.std::locale::facet"**, i8** }
%"class.std::locale::facet" = type <{ i32 (...)**, i32, [4 x i8] }>
%"class.std::basic_ostream" = type { i32 (...)**, %"class.std::basic_ios" }
%"class.std::basic_streambuf" = type { i32 (...)**, i8*, i8*, i8*, i8*, i8*, i8*, %"class.std::locale" }
%"class.std::ctype" = type <{ %"class.std::locale::facet.base", [4 x i8], %struct.__locale_struct*, i8, [7 x i8], i32*, i32*, i16*, i8, [256 x i8], [256 x i8], i8, [6 x i8] }>
%"class.std::locale::facet.base" = type <{ i32 (...)**, i32 }>
%struct.__locale_struct = type { [13 x %struct.__locale_data*], i16*, i32*, i32*, [13 x i8*] }
%struct.__locale_data = type opaque
%"class.std::num_put" = type { %"class.std::locale::facet.base", [4 x i8] }
%"class.std::num_get" = type { %"class.std::locale::facet.base", [4 x i8] }

@_ZStL8__ioinit = internal global %"class.std::ios_base::Init" zeroinitializer, align 1
@__dso_handle = external hidden global i8
@_ZSt3cin = external global %"class.std::basic_istream", align 8
@_ZSt4cout = external global %"class.std::basic_ostream", align 8
@llvm.global_ctors = appending global [1 x { i32, void ()*, i8* }] [{ i32, void ()*, i8* } { i32 65535, void ()* @_GLOBAL__sub_I_2560.cpp, i8* null }]

declare void @_ZNSt8ios_base4InitC1Ev(%"class.std::ios_base::Init"* nonnull align 1 dereferenceable(1)) unnamed_addr #0

; Function Attrs: nounwind
declare void @_ZNSt8ios_base4InitD1Ev(%"class.std::ios_base::Init"* nonnull align 1 dereferenceable(1)) unnamed_addr #1

; Function Attrs: nofree nounwind
declare i32 @__cxa_atexit(void (i8*)*, i8*, i8*) local_unnamed_addr #2

; Function Attrs: mustprogress norecurse sspstrong uwtable
define dso_local i32 @main() local_unnamed_addr #3 {
  %1 = alloca i32, align 4
  %2 = bitcast i32* %1 to i8*
  call void @llvm.lifetime.start.p0i8(i64 4, i8* nonnull %2) #6
  %3 = call nonnull align 8 dereferenceable(16) %"class.std::basic_istream"* @_ZNSirsERi(%"class.std::basic_istream"* nonnull align 8 dereferenceable(16) @_ZSt3cin, i32* nonnull align 4 dereferenceable(4) %1)
  %4 = load i32, i32* %1, align 4, !tbaa !5
  %5 = add i32 %4, -10000
  %6 = icmp ult i32 %5, 90000
  br i1 %6, label %7, label %28

7:                                                ; preds = %0
  %8 = udiv i32 %4, 10000
  %9 = mul nsw i32 %8, -10000
  %10 = add nsw i32 %9, %4
  %11 = sdiv i32 %10, 1000
  %12 = mul nsw i32 %11, -1000
  %13 = add nsw i32 %12, %10
  %14 = srem i32 %13, 100
  %15 = trunc i32 %14 to i8
  %16 = sdiv i8 %15, 10
  %17 = sext i8 %16 to i32
  %18 = mul nsw i32 %17, -10
  %19 = add nsw i32 %18, %14
  %20 = mul nsw i32 %11, 10
  %21 = mul nsw i32 %17, 1000
  %22 = mul nsw i32 %19, 10000
  %23 = add nsw i32 %20, %8
  %24 = add nsw i32 %23, %13
  %25 = sub nsw i32 %24, %14
  %26 = add nsw i32 %25, %21
  %27 = add nsw i32 %26, %22
  br label %82

28:                                               ; preds = %0
  %29 = add i32 %4, -1000
  %30 = icmp ult i32 %29, 9000
  br i1 %30, label %31, label %53

31:                                               ; preds = %28
  %32 = trunc i32 %4 to i16
  %33 = udiv i16 %32, 1000
  %34 = zext i16 %33 to i32
  %35 = mul nsw i32 %34, -1000
  %36 = add nsw i32 %35, %4
  %37 = trunc i32 %36 to i16
  %38 = sdiv i16 %37, 100
  %39 = sext i16 %38 to i32
  %40 = mul nsw i32 %39, -100
  %41 = add nsw i32 %40, %36
  %42 = trunc i32 %41 to i16
  %43 = sdiv i16 %42, 10
  %44 = sext i16 %43 to i32
  %45 = mul nsw i32 %44, -10
  %46 = add nsw i32 %45, %41
  %47 = mul nsw i32 %39, 10
  %48 = add nsw i32 %47, %34
  %49 = mul nsw i32 %44, 100
  %50 = add nsw i32 %48, %49
  %51 = mul nsw i32 %46, 1000
  %52 = add nsw i32 %50, %51
  br label %82

53:                                               ; preds = %28
  %54 = add i32 %4, -100
  %55 = icmp ult i32 %54, 900
  br i1 %55, label %56, label %69

56:                                               ; preds = %53
  %57 = trunc i32 %4 to i16
  %58 = udiv i16 %57, 100
  %59 = zext i16 %58 to i32
  %60 = mul nsw i32 %59, -100
  %61 = add nsw i32 %60, %4
  %62 = trunc i32 %61 to i16
  %63 = srem i16 %62, 10
  %64 = sext i16 %63 to i32
  %65 = mul nsw i32 %64, 100
  %66 = add nsw i32 %61, %59
  %67 = sub nsw i32 %66, %64
  %68 = add nsw i32 %67, %65
  br label %82

69:                                               ; preds = %53
  %70 = add i32 %4, -10
  %71 = icmp ult i32 %70, 90
  br i1 %71, label %72, label %80

72:                                               ; preds = %69
  %73 = trunc i32 %4 to i8
  %74 = udiv i8 %73, 10
  %75 = zext i8 %74 to i32
  %76 = mul nsw i32 %75, -10
  %77 = add nsw i32 %76, %4
  %78 = mul nsw i32 %77, 10
  %79 = add nsw i32 %78, %75
  br label %82

80:                                               ; preds = %69
  %81 = icmp slt i32 %4, 10
  br i1 %81, label %82, label %85

82:                                               ; preds = %80, %7, %56, %72, %31
  %83 = phi i32 [ %52, %31 ], [ %79, %72 ], [ %68, %56 ], [ %27, %7 ], [ %4, %80 ]
  %84 = call nonnull align 8 dereferenceable(8) %"class.std::basic_ostream"* @_ZNSolsEi(%"class.std::basic_ostream"* nonnull align 8 dereferenceable(8) @_ZSt4cout, i32 %83)
  br label %85

85:                                               ; preds = %82, %80
  call void @llvm.lifetime.end.p0i8(i64 4, i8* nonnull %2) #6
  ret i32 0
}

; Function Attrs: argmemonly mustprogress nofree nosync nounwind willreturn
declare void @llvm.lifetime.start.p0i8(i64 immarg, i8* nocapture) #4

declare nonnull align 8 dereferenceable(16) %"class.std::basic_istream"* @_ZNSirsERi(%"class.std::basic_istream"* nonnull align 8 dereferenceable(16), i32* nonnull align 4 dereferenceable(4)) local_unnamed_addr #0

declare nonnull align 8 dereferenceable(8) %"class.std::basic_ostream"* @_ZNSolsEi(%"class.std::basic_ostream"* nonnull align 8 dereferenceable(8), i32) local_unnamed_addr #0

; Function Attrs: argmemonly mustprogress nofree nosync nounwind willreturn
declare void @llvm.lifetime.end.p0i8(i64 immarg, i8* nocapture) #4

; Function Attrs: sspstrong uwtable
define internal void @_GLOBAL__sub_I_2560.cpp() #5 section ".text.startup" {
  tail call void @_ZNSt8ios_base4InitC1Ev(%"class.std::ios_base::Init"* nonnull align 1 dereferenceable(1) @_ZStL8__ioinit)
  %1 = tail call i32 @__cxa_atexit(void (i8*)* bitcast (void (%"class.std::ios_base::Init"*)* @_ZNSt8ios_base4InitD1Ev to void (i8*)*), i8* getelementptr inbounds (%"class.std::ios_base::Init", %"class.std::ios_base::Init"* @_ZStL8__ioinit, i64 0, i32 0), i8* nonnull @__dso_handle) #6
  ret void
}


!llvm.module.flags = !{!0, !1, !2, !3}
!llvm.ident = !{!4}

!0 = !{i32 1, !"wchar_size", i32 4}
!1 = !{i32 7, !"PIC Level", i32 2}
!2 = !{i32 7, !"PIE Level", i32 2}
!3 = !{i32 7, !"uwtable", i32 1}
!4 = !{!"clang version 13.0.0"}
!5 = !{!6, !6, i64 0}
!6 = !{!"int", !7, i64 0}
!7 = !{!"omnipotent char", !8, i64 0}
!8 = !{!"Simple C++ TBAA"}
